; Function Attrs: inlinehint mustprogress nofree norecurse nosync nounwind willreturn memory(none) uwtable
define internal fastcc range(i32 0, 233) i32 @sz_size2index_compute(i64 noundef %0) unnamed_addr #12 {
  %2 = icmp ugt i64 %0, 8070450532247928832
  br i1 %2, label %sz_size2index_compute_inline.exit, label %3, !prof !4

3:                                                ; preds = %1
  %4 = icmp samesign ult i64 %0, 9
  br i1 %4, label %sz_size2index_compute_inline.exit, label %5

5:                                                ; preds = %3
  %6 = shl nuw i64 %0, 1
  %7 = add i64 %6, -1
  %8 = tail call range(i64 0, 65) i64 @llvm.ctlz.i64(i64 range(i64 1, 0) %7, i1 true)
  %9 = trunc nuw nsw i64 %8 to i32
  %10 = xor i32 %9, 63
  %11 = tail call i32 @llvm.usub.sat.i32(i32 %10, i32 6)
  %12 = shl nuw nsw i32 %11, 2
  %13 = tail call i32 @llvm.umax.i32(i32 %10, i32 7)
  %14 = add nsw i32 %13, -3
  %15 = zext nneg i32 %14 to i64
  %16 = shl nsw i64 -1, %15
  %17 = add nsw i64 %0, -1
  %18 = and i64 %16, %17
  %19 = lshr i64 %18, %15
  %20 = trunc i64 %19 to i32
  %21 = and i32 %20, 3
  %22 = or disjoint i32 %12, 1
  %23 = add nuw nsw i32 %22, %21
  br label %sz_size2index_compute_inline.exit

sz_size2index_compute_inline.exit:                ; preds = %1, %3, %5
  %.0.i = phi i32 [ %23, %5 ], [ 232, %1 ], [ 0, %3 ]
  ret i32 %.0.i
}